target datalayout = "e-m:e-p270:32:32-p271:32:32-p272:64:64-i64:64-i128:128-f80:128-n8:16:32:64-S128"
target triple = "x86_64-pc-linux-gnu"

%struct.file_ctx_st = type { ptr, ptr, i32, %union.anon, i32 }
%union.anon = type { %struct.anon.1 }
%struct.anon.1 = type { ptr, i32, [9 x i8], ptr, i32 }
%struct.anon.0 = type { ptr, ptr, ptr, ptr }

; Function Attrs: nounwind uwtable
define internal i32 @file_eof(ptr noundef %0) #0 {
  %2 = alloca i32, align 4
  %3 = alloca ptr, align 8
  %4 = alloca ptr, align 8
  %5 = alloca i32, align 4
  store ptr %0, ptr %3, align 8, !tbaa !3
  call void @llvm.lifetime.start.p0(i64 8, ptr %4) #8
  %6 = load ptr, ptr %3, align 8, !tbaa !3
  store ptr %6, ptr %4, align 8, !tbaa !9
  %7 = load ptr, ptr %4, align 8, !tbaa !9
  %8 = getelementptr inbounds nuw %struct.file_ctx_st, ptr %7, i32 0, i32 2
  %9 = load i32, ptr %8, align 8, !tbaa !29
  switch i32 %9, label %34 [
    i32 1, label %10
    i32 0, label %15
  ]

10:                                               ; preds = %1
  %11 = load ptr, ptr %4, align 8, !tbaa !9
  %12 = getelementptr inbounds nuw %struct.file_ctx_st, ptr %11, i32 0, i32 3
  %13 = getelementptr inbounds nuw %struct.anon.1, ptr %12, i32 0, i32 1
  %14 = load i32, ptr %13, align 8, !tbaa !16
  store i32 %14, ptr %2, align 4
  store i32 1, ptr %5, align 4
  br label %35

15:                                               ; preds = %1
  %16 = load ptr, ptr %4, align 8, !tbaa !9
  %17 = getelementptr inbounds nuw %struct.file_ctx_st, ptr %16, i32 0, i32 3
  %18 = getelementptr inbounds nuw %struct.anon.0, ptr %17, i32 0, i32 0
  %19 = load ptr, ptr %18, align 8, !tbaa !16
  %20 = call i64 @BIO_ctrl(ptr noundef %19, i32 noundef 10, i64 noundef 0, ptr noundef null)
  %21 = trunc i64 %20 to i32
  %22 = icmp ne i32 %21, 0
  br i1 %22, label %31, label %23

23:                                               ; preds = %15
  %24 = load ptr, ptr %4, align 8, !tbaa !9
  %25 = getelementptr inbounds nuw %struct.file_ctx_st, ptr %24, i32 0, i32 3
  %26 = getelementptr inbounds nuw %struct.anon.0, ptr %25, i32 0, i32 0
  %27 = load ptr, ptr %26, align 8, !tbaa !16
  %28 = call i64 @BIO_ctrl(ptr noundef %27, i32 noundef 2, i64 noundef 0, ptr noundef null)
  %29 = trunc i64 %28 to i32
  %30 = icmp ne i32 %29, 0
  br label %31

31:                                               ; preds = %23, %15
  %32 = phi i1 [ false, %15 ], [ %30, %23 ]
  %33 = zext i1 %32 to i32
  store i32 %33, ptr %2, align 4
  store i32 1, ptr %5, align 4
  br label %35

34:                                               ; preds = %1
  store i32 1, ptr %2, align 4
  store i32 1, ptr %5, align 4
  br label %35

35:                                               ; preds = %34, %31, %10
  call void @llvm.lifetime.end.p0(i64 8, ptr %4) #8
  %36 = load i32, ptr %2, align 4
  ret i32 %36
}