; Function Attrs: nounwind uwtable
define internal i32 @file_eof(ptr noundef readonly captures(none) %0) #0 {
  %2 = getelementptr inbounds nuw i8, ptr %0, i64 16
  %3 = load i32, ptr %2, align 8, !tbaa !18
  switch i32 %3, label %18 [
    i32 1, label %4
    i32 0, label %7
  ]

4:                                                ; preds = %1
  %5 = getelementptr inbounds nuw i8, ptr %0, i64 32
  %6 = load i32, ptr %5, align 8, !tbaa !10
  br label %18

7:                                                ; preds = %1
  %8 = getelementptr inbounds nuw i8, ptr %0, i64 24
  %9 = load ptr, ptr %8, align 8, !tbaa !10
  %10 = tail call i64 @BIO_ctrl(ptr noundef %9, i32 noundef 10, i64 noundef 0, ptr noundef null) #8
  %11 = and i64 %10, 4294967295
  %.not = icmp eq i64 %11, 0
  br i1 %.not, label %12, label %18

12:                                               ; preds = %7
  %13 = load ptr, ptr %8, align 8, !tbaa !10
  %14 = tail call i64 @BIO_ctrl(ptr noundef %13, i32 noundef 2, i64 noundef 0, ptr noundef null) #8
  %15 = and i64 %14, 4294967295
  %16 = icmp ne i64 %15, 0
  %17 = zext i1 %16 to i32
  br label %18

18:                                               ; preds = %1, %7, %12, %4
  %.0 = phi i32 [ %6, %4 ], [ 0, %7 ], [ %17, %12 ], [ 1, %1 ]
  ret i32 %.0
}